target datalayout = "e-m:e-p270:32:32-p271:32:32-p272:64:64-i64:64-i128:128-f80:128-n8:16:32:64-S128"
target triple = "x86_64-unknown-linux-gnu"

; Function Attrs: mustprogress nounwind uwtable
define internal noundef i32 @_ZL15indexOfPhiEntryj(i32 noundef %index) #0 {
entry:
  %index.addr = alloca i32, align 4
  store i32 %index, ptr %index.addr, align 4
  %0 = load i32, ptr %index.addr, align 4
  %mul = mul i32 %0, 2
  ret i32 %mul
}

; Function Attrs: mustprogress nounwind uwtable
define hidden void @_ZN6hermes7PhiInst11updateEntryEjPNS_5ValueEPNS_10BasicBlockE(ptr noundef nonnull align 8 dereferenceable(132) %this, i32 noundef %i, ptr noundef %val, ptr noundef %BB) #0 align 2 {
entry:
  %this.addr = alloca ptr, align 8
  %i.addr = alloca i32, align 4
  %val.addr = alloca ptr, align 8
  %BB.addr = alloca ptr, align 8
  store ptr %this, ptr %this.addr, align 8
  store i32 %i, ptr %i.addr, align 4
  store ptr %val, ptr %val.addr, align 8
  store ptr %BB, ptr %BB.addr, align 8
  %this1 = load ptr, ptr %this.addr, align 8
  %0 = load ptr, ptr %val.addr, align 8
  %1 = load i32, ptr %i.addr, align 4
  %call = call noundef i32 @_ZL15indexOfPhiEntryj(i32 noundef %1)
  call void @_ZN6hermes11Instruction10setOperandEPNS_5ValueEj(ptr noundef nonnull align 8 dereferenceable(132) %this1, ptr noundef %0, i32 noundef %call)
  %2 = load ptr, ptr %BB.addr, align 8
  %3 = icmp eq ptr %2, null
  br i1 %3, label %cast.end, label %cast.notnull

cast.notnull:                                     ; preds = %entry
  %add.ptr = getelementptr inbounds i8, ptr %2, i64 16
  br label %cast.end

cast.end:                                         ; preds = %cast.notnull, %entry
  %cast.result = phi ptr [ %add.ptr, %cast.notnull ], [ null, %entry ]
  %4 = load i32, ptr %i.addr, align 4
  %call2 = call noundef i32 @_ZL15indexOfPhiEntryj(i32 noundef %4)
  %add = add i32 %call2, 1
  call void @_ZN6hermes11Instruction10setOperandEPNS_5ValueEj(ptr noundef nonnull align 8 dereferenceable(132) %this1, ptr noundef %cast.result, i32 noundef %add)
  ret void
}