; Function Attrs: mustprogress nounwind uwtable
define hidden void @_ZN6hermes7PhiInst11updateEntryEjPNS_5ValueEPNS_10BasicBlockE(ptr noundef nonnull align 8 dereferenceable(132) %this, i32 noundef %i, ptr noundef %val, ptr noundef %BB) local_unnamed_addr #0 align 2 {
entry:
  %mul.i = shl i32 %i, 1
  tail call void @_ZN6hermes11Instruction10setOperandEPNS_5ValueEj(ptr noundef nonnull align 8 dereferenceable(132) %this, ptr noundef %val, i32 noundef %mul.i) #15
  %0 = icmp eq ptr %BB, null
  %add.ptr = getelementptr inbounds nuw i8, ptr %BB, i64 16
  %spec.select = select i1 %0, ptr null, ptr %add.ptr
  %add = or disjoint i32 %mul.i, 1
  tail call void @_ZN6hermes11Instruction10setOperandEPNS_5ValueEj(ptr noundef nonnull align 8 dereferenceable(132) %this, ptr noundef %spec.select, i32 noundef %add) #15
  ret void
}